Certificate:
    Data:
        Version: 3 (0x2)
        Serial Number: 2 (0x2)
    Signature Algorithm: sha256WithRSAEncryption
        Issuer: C=FR, ST=FRANCE, L=Ivry-sur-seine, O=INTECH, OU=ITI13S-SR, CN=INTECH CA/name=EasyRSA/emailAddress=veran@intechinfo.fr
        Validity
            Not Before: Jan 22 18:13:03 2016 GMT
            Not After : Jan 19 18:13:03 2026 GMT
        Subject: C=FR, ST=FRANCE, L=Ivry-sur-seine, O=INTECH, OU=ITI13S-SR, CN=pierrick/name=EasyRSA/emailAddress=veran@intechinfo.fr
        Subject Public Key Info:
            Public Key Algorithm: rsaEncryption
                Public-Key: (2048 bit)
                Modulus:
                    00:d3:82:4f:a0:06:e2:f1:b6:f4:04:42:f6:b0:f3:
                    49:a1:36:1d:21:4d:80:c8:cb:d8:a0:22:70:90:f1:
                    2d:dd:72:c9:ee:76:89:0e:45:c8:1f:cb:dd:54:57:
                    f9:1a:38:a7:90:6a:a8:40:99:35:07:d0:cf:ae:a7:
                    0b:55:f2:c8:d2:90:dc:d2:c0:ce:56:60:96:db:70:
                    06:21:5c:12:2b:9a:71:97:7f:1f:1c:e9:9f:4d:b7:
                    9f:45:79:a0:57:e9:a7:e0:fe:ff:a8:01:0b:5f:78:
                    d1:a3:a4:c1:17:c9:17:75:cc:1e:ab:37:d2:83:ee:
                    3e:d3:35:d4:2e:0b:90:06:19:bd:df:f0:5e:96:4a:
                    ca:8d:09:a0:b8:80:d1:e0:c7:c4:e3:46:d5:50:b6:
                    4a:fa:50:40:e1:e6:bb:7e:c5:a0:db:bb:c6:df:f8:
                    4a:f7:95:70:59:14:c0:85:eb:18:ff:48:ba:25:87:
                    2b:8e:df:da:ad:cf:e1:13:28:8e:10:ec:3a:a3:63:
                    62:3e:27:f0:1a:7b:f0:cd:98:c8:39:5b:d3:d8:4f:
                    3c:09:cc:f5:1b:c5:73:2c:9c:11:08:b4:20:91:d6:
                    99:c8:08:66:52:e2:18:7c:f6:3c:a2:57:57:e0:8e:
                    08:d6:04:96:ec:51:5b:74:c1:09:86:c3:0a:b3:57:
                    6d:67
                Exponent: 65537 (0x10001)
        X509v3 extensions:
            X509v3 Basic Constraints: 
                CA:FALSE
            Netscape Comment: 
                Easy-RSA Generated Certificate
            X509v3 Subject Key Identifier: 
                AA:5F:A6:35:39:7E:40:0C:48:54:BA:C5:E8:01:95:13:C3:D7:8D:0F
            X509v3 Authority Key Identifier: 
                keyid:01:15:A5:7F:A9:34:31:52:56:5E:58:BF:75:48:D3:A7:F5:8D:27:FC
                DirName:/C=FR/ST=FRANCE/L=Ivry-sur-seine/O=INTECH/OU=ITI13S-SR/CN=INTECH CA/name=EasyRSA/emailAddress=veran@intechinfo.fr
                serial:82:07:19:27:06:E8:FF:67

            X509v3 Extended Key Usage: 
                TLS Web Client Authentication
            X509v3 Key Usage: 
                Digital Signature
            X509v3 Subject Alternative Name: 
                DNS:pierrick
    Signature Algorithm: sha256WithRSAEncryption
         7a:8b:79:60:20:60:3f:3f:f0:32:a4:42:a0:c5:5c:e3:49:d1:
         15:cb:00:e4:58:8c:60:dc:94:02:c9:d2:1f:14:74:d6:a6:aa:
         a9:14:13:7e:1e:da:98:e9:e7:76:f9:d0:42:93:13:8b:6e:19:
         66:19:e6:1c:7d:57:6d:b0:1c:d7:67:86:f5:e7:18:b4:9c:b8:
         dc:f0:60:d1:dd:4a:f2:22:95:ce:ea:44:e4:fb:fb:4b:a6:55:
         34:fd:6f:11:43:73:da:a2:ed:e7:3d:15:b7:5f:63:9b:63:56:
         6c:32:dc:f8:72:07:29:1d:cc:a8:54:d8:64:8e:59:fc:fb:93:
         75:8e:64:57:96:4b:d0:ca:c7:7e:6e:c1:b9:bb:73:bd:c9:7a:
         42:8a:f7:f7:4e:f1:34:da:e1:d4:5f:80:51:29:59:be:82:44:
         9f:34:38:1a:95:7d:d8:7b:cf:bf:06:a2:2f:6f:b2:ad:5f:82:
         1b:b0:05:1c:45:84:42:a4:49:54:52:64:7a:2b:72:0a:0e:d3:
         4d:4a:07:42:be:1f:84:a2:76:cb:15:25:72:09:c1:03:f7:60:
         b9:96:8f:33:57:9a:b4:42:fc:1d:33:ea:e5:ee:c3:9b:df:f5:
         1c:2b:bd:b9:db:9f:75:ac:4a:3a:70:05:96:ad:39:94:47:97:
         b6:07:9f:6e
-----BEGIN CERTIFICATE-----
MIIFPDCCBCSgAwIBAgIBAjANBgkqhkiG9w0BAQsFADCBpjELMAkGA1UEBhMCRlIx
DzANBgNVBAgTBkZSQU5DRTEXMBUGA1UEBxMOSXZyeS1zdXItc2VpbmUxDzANBgNV
BAoTBklOVEVDSDESMBAGA1UECxMJSVRJMTNTLVNSMRIwEAYDVQQDEwlJTlRFQ0gg
Q0ExEDAOBgNVBCkTB0Vhc3lSU0ExIjAgBgkqhkiG9w0BCQEWE3ZlcmFuQGludGVj
aGluZm8uZnIwHhcNMTYwMTIyMTgxMzAzWhcNMjYwMTE5MTgxMzAzWjCBpTELMAkG
A1UEBhMCRlIxDzANBgNVBAgTBkZSQU5DRTEXMBUGA1UEBxMOSXZyeS1zdXItc2Vp
bmUxDzANBgNVBAoTBklOVEVDSDESMBAGA1UECxMJSVRJMTNTLVNSMREwDwYDVQQD
EwhwaWVycmljazEQMA4GA1UEKRMHRWFzeVJTQTEiMCAGCSqGSIb3DQEJARYTdmVy
YW5AaW50ZWNoaW5mby5mcjCCASIwDQYJKoZIhvcNAQEBBQADggEPADCCAQoCggEB
ANOCT6AG4vG29ARC9rDzSaE2HSFNgMjL2KAicJDxLd1yye52iQ5FyB/L3VRX+Ro4
p5BqqECZNQfQz66nC1XyyNKQ3NLAzlZglttwBiFcEiuacZd/Hxzpn023n0V5oFfp
p+D+/6gBC1940aOkwRfJF3XMHqs30oPuPtM11C4LkAYZvd/wXpZKyo0JoLiA0eDH
xONG1VC2SvpQQOHmu37FoNu7xt/4SveVcFkUwIXrGP9IuiWHK47f2q3P4RMojhDs
OqNjYj4n8Bp78M2YyDlb09hPPAnM9RvFcyycEQi0IJHWmcgIZlLiGHz2PKJXV+CO
CNYEluxRW3TBCYbDCrNXbWcCAwEAAaOCAXIwggFuMAkGA1UdEwQCMAAwLQYJYIZI
AYb4QgENBCAWHkVhc3ktUlNBIEdlbmVyYXRlZCBDZXJ0aWZpY2F0ZTAdBgNVHQ4E
FgQUql+mNTl+QAxIVLrF6AGVE8PXjQ8wgdsGA1UdIwSB0zCB0IAUARWlf6k0MVJW
Xli/dUjTp/WNJ/yhgaykgakwgaYxCzAJBgNVBAYTAkZSMQ8wDQYDVQQIEwZGUkFO
Q0UxFzAVBgNVBAcTDkl2cnktc3VyLXNlaW5lMQ8wDQYDVQQKEwZJTlRFQ0gxEjAQ
BgNVBAsTCUlUSTEzUy1TUjESMBAGA1UEAxMJSU5URUNIIENBMRAwDgYDVQQpEwdF
YXN5UlNBMSIwIAYJKoZIhvcNAQkBFhN2ZXJhbkBpbnRlY2hpbmZvLmZyggkAggcZ
Jwbo/2cwEwYDVR0lBAwwCgYIKwYBBQUHAwIwCwYDVR0PBAQDAgeAMBMGA1UdEQQM
MAqCCHBpZXJyaWNrMA0GCSqGSIb3DQEBCwUAA4IBAQB6i3lgIGA/P/AypEKgxVzj
SdEVywDkWIxg3JQCydIfFHTWpqqpFBN+HtqY6ed2+dBCkxOLbhlmGeYcfVdtsBzX
Z4b15xi0nLjc8GDR3UryIpXO6kTk+/tLplU0/W8RQ3Paou3nPRW3X2ObY1ZsMtz4
cgcpHcyoVNhkjln8+5N1jmRXlkvQysd+bsG5u3O9yXpCivf3TvE02uHUX4BRKVm+
gkSfNDgalX3Ye8+/BqIvb7KtX4IbsAUcRYRCpElUUmR6K3IKDtNNSgdCvh+EonbL
FSVyCcED92C5lo8zV5q0QvwdM+rl7sOb3/UcK7252591rEo6cAWWrTmUR5e2B59u
-----END CERTIFICATE-----
