Certificate:
    Data:
        Version: 3 (0x2)
        Serial Number: 1 (0x1)
    Signature Algorithm: sha1WithRSAEncryption
        Issuer: C=FR, ST=Ile-de-France, L=Ivry-sur-Seine, O=INTECHINFO, CN=tsc_pki_root/emailAddress=tsc_pki_root@tsc.itinet.fr
        Validity
            Not Before: Nov 10 10:48:54 2015 GMT
            Not After : Nov  9 10:48:54 2016 GMT
        Subject: C=FR, ST=Ile-de-France, L=Ivry-sur-Seine, O=INTECHINFO, CN=tsc_pki_child/emailAddress=tsc_pki_child@tsc.itinet.fr
        Subject Public Key Info:
            Public Key Algorithm: rsaEncryption
                Public-Key: (2048 bit)
                Modulus:
                    00:9d:c1:64:af:0a:b3:b5:83:af:95:42:63:44:eb:
                    58:89:03:44:fb:1a:a3:d3:40:eb:96:a1:49:ba:7a:
                    00:d3:d6:b3:d4:12:38:8f:89:9d:f9:07:f7:38:af:
                    7d:b7:c5:f1:f0:b7:f2:c1:87:06:0b:8d:32:ff:9d:
                    d1:81:08:6e:e8:23:29:d5:f0:3e:e4:e5:34:5a:b1:
                    56:bf:2a:f7:b7:4b:94:25:8f:e3:4a:64:95:fd:f1:
                    4e:37:ad:ca:98:c5:9d:6d:ba:f9:8d:10:c7:6e:93:
                    b0:0f:3b:50:86:8f:20:29:b2:9c:cf:30:79:00:7a:
                    58:fb:66:4e:e2:0b:b7:1a:a0:d0:3b:c5:2e:ea:76:
                    4e:04:3d:7e:c4:dd:90:36:dd:a5:bb:d8:69:79:0f:
                    3d:8b:17:07:bb:6c:61:5e:7a:0d:b0:64:5f:69:8b:
                    56:f6:c6:ba:9c:96:dd:a1:e0:ac:74:2a:81:17:d2:
                    11:63:cd:5e:f7:43:11:c5:eb:68:59:13:ea:88:d2:
                    55:9d:04:2a:c1:c9:fe:87:4f:f7:d5:ce:a1:77:44:
                    4f:58:b1:72:b4:be:42:60:46:e7:36:39:e4:b9:cd:
                    94:e3:8d:2f:2a:63:98:d0:f6:db:5f:44:9c:3b:5f:
                    9d:e9:ea:58:07:77:2e:8c:79:9e:75:e3:77:99:6a:
                    60:3f
                Exponent: 65537 (0x10001)
        X509v3 extensions:
            Netscape Comment: 
                CA SSL
            X509v3 Basic Constraints: critical
                CA:TRUE, pathlen:0
            X509v3 Subject Key Identifier: 
                9A:2E:D1:EA:79:1E:B3:7B:E8:AD:DD:7B:93:3D:6A:9C:C5:4B:7A:D8
            X509v3 Authority Key Identifier: 
                keyid:D9:D2:6F:5B:42:88:B1:F7:00:12:EE:FB:86:A5:CC:8D:9B:F0:3E:10
                DirName:/C=FR/ST=Ile-de-France/L=Ivry-sur-Seine/O=INTECHINFO/CN=tsc_pki_root/emailAddress=tsc_pki_root@tsc.itinet.fr
                serial:AA:53:CF:0F:F7:9F:DA:79

            X509v3 Issuer Alternative Name: 
                <EMPTY>

            X509v3 Key Usage: 
                Certificate Sign, CRL Sign
            Netscape Cert Type: 
                SSL CA
    Signature Algorithm: sha1WithRSAEncryption
         8a:03:5e:b4:90:00:ce:9e:29:90:b4:d3:c2:b1:c5:86:c6:81:
         cc:db:4b:0f:f3:c2:8e:3f:fa:45:e0:9f:9b:5d:ed:0a:80:30:
         9c:67:1e:f6:cd:d6:e5:69:62:40:62:66:cf:30:b3:0f:4b:1d:
         50:c1:e7:34:a9:83:c5:3e:0b:07:94:37:08:46:a3:65:d2:be:
         1e:63:29:1b:43:34:2e:5e:b2:e4:4f:a0:ec:18:17:a6:e5:58:
         cb:0c:91:93:66:ee:28:f0:05:c6:6b:d8:b6:35:be:6b:cf:85:
         c3:0b:39:e3:ed:87:2e:4a:f2:0a:a5:76:a0:ea:cc:99:e1:45:
         8e:a4:33:20:dc:61:a1:1d:2c:21:6d:16:1f:99:14:a1:bb:f3:
         f1:32:7d:fc:47:bd:d2:9b:9d:57:ba:47:46:20:c7:81:f1:eb:
         32:8f:1c:7d:ea:a0:67:ad:f7:6e:71:6b:0b:ac:26:d5:bd:a7:
         22:ca:9b:03:9f:eb:2d:d3:82:4f:35:b3:a1:a9:75:e7:95:d3:
         f3:63:ca:02:f0:d7:bd:e9:98:88:66:05:7c:e9:85:94:ee:26:
         c0:0a:a0:fd:02:70:62:05:33:b8:51:00:3f:25:a7:35:d9:f8:
         03:25:6f:9b:cb:c5:26:69:f5:9b:d0:ab:1d:86:33:5e:2e:9f:
         4e:37:a6:b8
-----BEGIN CERTIFICATE-----
MIIE8TCCA9mgAwIBAgIBATANBgkqhkiG9w0BAQUFADCBlTELMAkGA1UEBhMCRlIx
FjAUBgNVBAgMDUlsZS1kZS1GcmFuY2UxFzAVBgNVBAcMDkl2cnktc3VyLVNlaW5l
MRMwEQYDVQQKDApJTlRFQ0hJTkZPMRUwEwYDVQQDDAx0c2NfcGtpX3Jvb3QxKTAn
BgkqhkiG9w0BCQEWGnRzY19wa2lfcm9vdEB0c2MuaXRpbmV0LmZyMB4XDTE1MTEx
MDEwNDg1NFoXDTE2MTEwOTEwNDg1NFowgZcxCzAJBgNVBAYTAkZSMRYwFAYDVQQI
DA1JbGUtZGUtRnJhbmNlMRcwFQYDVQQHDA5JdnJ5LXN1ci1TZWluZTETMBEGA1UE
CgwKSU5URUNISU5GTzEWMBQGA1UEAwwNdHNjX3BraV9jaGlsZDEqMCgGCSqGSIb3
DQEJARYbdHNjX3BraV9jaGlsZEB0c2MuaXRpbmV0LmZyMIIBIjANBgkqhkiG9w0B
AQEFAAOCAQ8AMIIBCgKCAQEAncFkrwqztYOvlUJjROtYiQNE+xqj00DrlqFJunoA
09az1BI4j4md+Qf3OK99t8Xx8LfywYcGC40y/53RgQhu6CMp1fA+5OU0WrFWvyr3
t0uUJY/jSmSV/fFON63KmMWdbbr5jRDHbpOwDztQho8gKbKczzB5AHpY+2ZO4gu3
GqDQO8Uu6nZOBD1+xN2QNt2lu9hpeQ89ixcHu2xhXnoNsGRfaYtW9sa6nJbdoeCs
dCqBF9IRY81e90MRxetoWRPqiNJVnQQqwcn+h0/31c6hd0RPWLFytL5CYEbnNjnk
uc2U440vKmOY0PbbX0ScO1+d6epYB3cujHmedeN3mWpgPwIDAQABo4IBRjCCAUIw
FQYJYIZIAYb4QgENBAgWBkNBIFNTTDASBgNVHRMBAf8ECDAGAQH/AgEAMB0GA1Ud
DgQWBBSaLtHqeR6ze+it3XuTPWqcxUt62DCBygYDVR0jBIHCMIG/gBTZ0m9bQoix
9wAS7vuGpcyNm/A+EKGBm6SBmDCBlTELMAkGA1UEBhMCRlIxFjAUBgNVBAgMDUls
ZS1kZS1GcmFuY2UxFzAVBgNVBAcMDkl2cnktc3VyLVNlaW5lMRMwEQYDVQQKDApJ
TlRFQ0hJTkZPMRUwEwYDVQQDDAx0c2NfcGtpX3Jvb3QxKTAnBgkqhkiG9w0BCQEW
GnRzY19wa2lfcm9vdEB0c2MuaXRpbmV0LmZyggkAqlPPD/ef2nkwCQYDVR0SBAIw
ADALBgNVHQ8EBAMCAQYwEQYJYIZIAYb4QgEBBAQDAgIEMA0GCSqGSIb3DQEBBQUA
A4IBAQCKA160kADOnimQtNPCscWGxoHM20sP88KOP/pF4J+bXe0KgDCcZx72zdbl
aWJAYmbPMLMPSx1Qwec0qYPFPgsHlDcIRqNl0r4eYykbQzQuXrLkT6DsGBem5VjL
DJGTZu4o8AXGa9i2Nb5rz4XDCznj7YcuSvIKpXag6syZ4UWOpDMg3GGhHSwhbRYf
mRShu/PxMn38R73Sm51XukdGIMeB8esyjxx96qBnrfducWsLrCbVvaciypsDn+st
04JPNbOhqXXnldPzY8oC8Ne96ZiIZgV86YWU7ibACqD9AnBiBTO4UQA/Jac12fgD
JW+by8UmafWb0KsdhjNeLp9ON6a4
-----END CERTIFICATE-----
