Certificate:
    Data:
        Version: 3 (0x2)
        Serial Number: 2 (0x2)
    Signature Algorithm: sha1WithRSAEncryption
        Issuer: C=FR, ST=Ile-de-France, L=Ivry-sur-Seine, O=INTECHINFO, CN=tsc_pki_child/emailAddress=tsc_pki_child@tsc.itinet.fr
        Validity
            Not Before: Nov 10 10:50:55 2015 GMT
            Not After : Nov  9 10:50:55 2016 GMT
        Subject: C=FR, ST=Ile-de-France, L=Ivry-sur-Seine, O=INTECHINFO, CN=tsc_veran/emailAddress=veran@tsc.itinet.fr
        Subject Public Key Info:
            Public Key Algorithm: rsaEncryption
                Public-Key: (2048 bit)
                Modulus:
                    00:c8:32:50:4a:69:4c:df:1d:05:91:93:a6:76:9e:
                    61:91:d2:e9:73:2d:c2:28:2d:17:39:52:eb:e7:d6:
                    a1:9c:4b:be:e5:45:e5:9b:39:7c:8a:a5:f7:b8:7c:
                    bd:73:26:f7:d4:11:2f:0c:4e:ba:40:5a:0b:46:50:
                    f4:28:f9:72:da:cf:b5:5d:46:b2:77:6a:49:dc:cf:
                    f4:34:6c:31:cb:0b:14:9c:84:74:11:a9:59:2e:65:
                    a9:6a:82:8d:6f:ac:c2:2b:fd:f6:c0:05:40:2e:d8:
                    52:0b:b4:50:55:92:8e:75:e7:6d:9b:c6:7d:70:56:
                    dc:25:dd:2b:eb:11:16:19:9f:4c:0e:70:bf:6d:9a:
                    a8:07:66:93:76:0c:4e:4e:12:4d:fc:8a:81:1b:04:
                    dd:1f:04:dd:01:78:f5:9e:37:92:80:d4:dd:49:64:
                    89:1a:a8:91:05:6b:cf:b6:5b:60:1b:01:89:1c:0e:
                    7d:7e:0e:c5:7b:72:85:da:ed:cd:97:0e:cc:53:bd:
                    6a:64:ff:88:3b:ca:32:7e:ff:0d:30:58:15:4f:9a:
                    5b:cf:a1:33:57:cd:1c:ee:5b:6a:98:fd:7e:98:74:
                    56:48:27:28:c0:c7:a5:d1:c0:1e:9b:a0:26:cc:2b:
                    fb:b0:38:e8:92:1a:84:32:2f:06:41:09:7e:8c:48:
                    91:cf
                Exponent: 65537 (0x10001)
        X509v3 extensions:
            Netscape Comment: 
                Certificat Client SSL
            X509v3 Subject Key Identifier: 
                67:B2:4B:5D:D5:4B:6D:F3:0F:61:EC:D4:CB:00:96:28:FD:4B:63:D3
            X509v3 Authority Key Identifier: 
                keyid:9A:2E:D1:EA:79:1E:B3:7B:E8:AD:DD:7B:93:3D:6A:9C:C5:4B:7A:D8
                DirName:/C=FR/ST=Ile-de-France/L=Ivry-sur-Seine/O=INTECHINFO/CN=tsc_pki_root/emailAddress=tsc_pki_root@tsc.itinet.fr
                serial:01

            X509v3 Issuer Alternative Name: 
                <EMPTY>

            X509v3 Subject Alternative Name: critical
                email:veran@tsc.itinet.fr, email:user-bis@domain.com, email:user-ter@domain.com
            X509v3 Basic Constraints: critical
                CA:FALSE
            X509v3 Key Usage: 
                Digital Signature, Non Repudiation
            Netscape Cert Type: 
                SSL Client
            X509v3 Extended Key Usage: 
                TLS Web Client Authentication
    Signature Algorithm: sha1WithRSAEncryption
         5c:85:00:ea:fa:03:5e:d6:b4:ac:2e:a5:3a:1b:5b:9c:a4:7d:
         fe:18:3c:ab:71:c6:47:ad:2f:54:52:90:b4:d8:69:0d:5a:bf:
         d3:6f:50:16:78:5b:13:ee:76:26:11:35:96:30:4c:9a:52:c0:
         42:47:ad:34:35:be:8c:e4:6c:eb:3f:9f:02:f2:f0:75:09:c7:
         36:92:1a:e5:08:a2:6c:d5:68:87:17:ae:dc:25:5a:ad:04:51:
         b2:d0:a2:7d:2e:5f:32:c9:25:d3:cb:cb:73:67:06:e7:7a:6d:
         0f:82:1e:bf:76:ba:0c:a9:d9:51:af:ab:04:3c:d4:f4:78:52:
         7e:75:c3:6d:d5:a5:2c:4c:f9:ec:eb:f3:1c:79:33:10:91:88:
         78:d3:b7:5d:f4:a6:99:d6:5f:18:45:7a:49:16:c2:e6:8b:75:
         a5:8f:b4:66:76:f0:d2:71:0a:bf:7b:fa:6d:57:d2:9d:0f:ac:
         d0:35:6b:ba:6a:b3:84:b9:9e:ba:d1:38:ab:45:2d:a9:68:21:
         a1:b1:37:81:01:3c:52:2c:f4:db:52:4f:23:3a:d8:64:6e:a4:
         af:40:ad:17:53:d4:a1:74:b7:4d:e2:10:6d:0f:45:09:b8:aa:
         7c:54:eb:36:04:0c:48:95:56:aa:21:bd:66:c3:85:72:7a:51:
         15:c8:66:c7
-----BEGIN CERTIFICATE-----
MIIFSjCCBDKgAwIBAgIBAjANBgkqhkiG9w0BAQUFADCBlzELMAkGA1UEBhMCRlIx
FjAUBgNVBAgMDUlsZS1kZS1GcmFuY2UxFzAVBgNVBAcMDkl2cnktc3VyLVNlaW5l
MRMwEQYDVQQKDApJTlRFQ0hJTkZPMRYwFAYDVQQDDA10c2NfcGtpX2NoaWxkMSow
KAYJKoZIhvcNAQkBFht0c2NfcGtpX2NoaWxkQHRzYy5pdGluZXQuZnIwHhcNMTUx
MTEwMTA1MDU1WhcNMTYxMTA5MTA1MDU1WjCBizELMAkGA1UEBhMCRlIxFjAUBgNV
BAgMDUlsZS1kZS1GcmFuY2UxFzAVBgNVBAcMDkl2cnktc3VyLVNlaW5lMRMwEQYD
VQQKDApJTlRFQ0hJTkZPMRIwEAYDVQQDDAl0c2NfdmVyYW4xIjAgBgkqhkiG9w0B
CQEWE3ZlcmFuQHRzYy5pdGluZXQuZnIwggEiMA0GCSqGSIb3DQEBAQUAA4IBDwAw
ggEKAoIBAQDIMlBKaUzfHQWRk6Z2nmGR0ulzLcIoLRc5Uuvn1qGcS77lReWbOXyK
pfe4fL1zJvfUES8MTrpAWgtGUPQo+XLaz7VdRrJ3akncz/Q0bDHLCxSchHQRqVku
Zalqgo1vrMIr/fbABUAu2FILtFBVko51522bxn1wVtwl3SvrERYZn0wOcL9tmqgH
ZpN2DE5OEk38ioEbBN0fBN0BePWeN5KA1N1JZIkaqJEFa8+2W2AbAYkcDn1+DsV7
coXa7c2XDsxTvWpk/4g7yjJ+/w0wWBVPmlvPoTNXzRzuW2qY/X6YdFZIJyjAx6XR
wB6boCbMK/uwOOiSGoQyLwZBCX6MSJHPAgMBAAGjggGpMIIBpTAkBglghkgBhvhC
AQ0EFxYVQ2VydGlmaWNhdCBDbGllbnQgU1NMMB0GA1UdDgQWBBRnsktd1Utt8w9h
7NTLAJYo/Utj0zCBwgYDVR0jBIG6MIG3gBSaLtHqeR6ze+it3XuTPWqcxUt62KGB
m6SBmDCBlTELMAkGA1UEBhMCRlIxFjAUBgNVBAgMDUlsZS1kZS1GcmFuY2UxFzAV
BgNVBAcMDkl2cnktc3VyLVNlaW5lMRMwEQYDVQQKDApJTlRFQ0hJTkZPMRUwEwYD
VQQDDAx0c2NfcGtpX3Jvb3QxKTAnBgkqhkiG9w0BCQEWGnRzY19wa2lfcm9vdEB0
c2MuaXRpbmV0LmZyggEBMAkGA1UdEgQCMAAwSwYDVR0RAQH/BEEwP4ETdmVyYW5A
dHNjLml0aW5ldC5mcoETdXNlci1iaXNAZG9tYWluLmNvbYETdXNlci10ZXJAZG9t
YWluLmNvbTAMBgNVHRMBAf8EAjAAMAsGA1UdDwQEAwIGwDARBglghkgBhvhCAQEE
BAMCB4AwEwYDVR0lBAwwCgYIKwYBBQUHAwIwDQYJKoZIhvcNAQEFBQADggEBAFyF
AOr6A17WtKwupTobW5ykff4YPKtxxketL1RSkLTYaQ1av9NvUBZ4WxPudiYRNZYw
TJpSwEJHrTQ1vozkbOs/nwLy8HUJxzaSGuUIomzVaIcXrtwlWq0EUbLQon0uXzLJ
JdPLy3NnBud6bQ+CHr92ugyp2VGvqwQ81PR4Un51w23VpSxM+ezr8xx5MxCRiHjT
t130ppnWXxhFekkWwuaLdaWPtGZ28NJxCr97+m1X0p0PrNA1a7pqs4S5nrrROKtF
LaloIaGxN4EBPFIs9NtSTyM62GRupK9ArRdT1KF0t03iEG0PRQm4qnxU6zYEDEiV
VqohvWbDhXJ6URXIZsc=
-----END CERTIFICATE-----
