Certificate:
    Data:
        Version: 3 (0x2)
        Serial Number: 1 (0x1)
    Signature Algorithm: sha1WithRSAEncryption
        Issuer: C=FR, ST=Ile-de-France, L=Ivry-sur-Seine, O=INTECHINFO, CN=tsc_pki_child/emailAddress=tsc_pki_child@tsc.itinet.fr
        Validity
            Not Before: Nov 10 10:50:00 2015 GMT
            Not After : Nov  9 10:50:00 2016 GMT
        Subject: C=FR, ST=Ile-de-France, L=Ivry-sur-Seine, O=INTECHINFO, CN=tsc_master/emailAddress=tsc_master@tsc.itinet.fr
        Subject Public Key Info:
            Public Key Algorithm: rsaEncryption
                Public-Key: (1024 bit)
                Modulus:
                    00:ca:00:90:e7:b1:25:40:ee:5b:9f:1d:00:ee:5b:
                    aa:08:b4:ca:04:ab:4e:8d:76:91:91:d5:51:9b:3e:
                    ba:ab:88:8d:79:46:63:48:78:8f:b3:fc:c7:b1:d1:
                    f3:85:a0:e4:0d:91:82:a3:21:92:16:00:45:90:cc:
                    7c:eb:d2:b0:c3:57:1c:1d:8e:28:a4:d8:1e:cb:34:
                    90:bb:84:e2:91:82:e6:d0:e1:5b:e9:2d:1a:63:d7:
                    44:29:45:e9:4e:f8:4a:37:1a:f7:e4:ab:95:16:4d:
                    ae:86:d2:4e:a1:da:5d:54:dc:9f:4f:0c:d3:5a:8b:
                    e7:66:8f:e9:3b:41:e8:c1:e5
                Exponent: 65537 (0x10001)
        X509v3 extensions:
            Netscape Comment: 
                Certificat Serveur SSL
            X509v3 Subject Key Identifier: 
                DF:7D:26:13:20:B5:37:42:AB:3F:26:83:47:DC:1C:3A:41:64:94:1D
            X509v3 Authority Key Identifier: 
                keyid:9A:2E:D1:EA:79:1E:B3:7B:E8:AD:DD:7B:93:3D:6A:9C:C5:4B:7A:D8
                DirName:/C=FR/ST=Ile-de-France/L=Ivry-sur-Seine/O=INTECHINFO/CN=tsc_pki_root/emailAddress=tsc_pki_root@tsc.itinet.fr
                serial:01

            X509v3 Issuer Alternative Name: 
                <EMPTY>

            X509v3 Subject Alternative Name: 
                DNS:www.webserver.com, DNS:www.webserver-bis.com
            X509v3 Basic Constraints: critical
                CA:FALSE
            X509v3 Key Usage: 
                Digital Signature, Non Repudiation, Key Encipherment
            Netscape Cert Type: 
                SSL Server
            X509v3 Extended Key Usage: 
                TLS Web Server Authentication
    Signature Algorithm: sha1WithRSAEncryption
         34:d0:1e:63:5f:9f:e2:13:35:5c:f4:87:c6:99:3d:e8:d2:2b:
         10:7e:64:5d:d8:8e:fb:dc:ee:ec:a3:df:c2:4b:fa:62:e0:f2:
         81:f4:6b:78:e1:b9:cc:7b:fa:15:2e:76:19:44:9f:ab:e8:8a:
         69:5f:34:05:68:09:58:5a:64:1e:80:8c:9b:44:45:6b:1b:8a:
         d3:f8:ee:96:a9:2c:56:23:2a:66:a6:77:91:76:86:79:3e:30:
         b2:2c:91:9d:5e:d4:ad:98:f7:87:9b:a1:e3:dc:47:9b:99:00:
         ce:12:46:0b:9a:28:95:06:ff:7f:8d:be:a6:e6:95:46:ce:3f:
         98:d4:fb:34:ac:28:c8:67:68:10:27:25:98:10:a8:e5:6c:db:
         3b:53:ad:7b:a9:a1:6f:45:16:71:29:f5:a6:0b:c4:d6:93:d7:
         be:a9:13:af:4d:a3:da:5f:a5:2e:53:6c:d4:78:c7:a7:3a:b1:
         37:d6:af:9a:6a:d3:6c:01:b1:46:67:7c:2b:e1:17:e5:82:2c:
         df:27:4c:c7:c5:72:f8:d2:a8:c2:b9:81:7c:19:0e:f6:fa:e0:
         dd:7b:2f:39:6b:97:a2:0d:d2:62:78:75:87:ac:65:25:67:8a:
         f7:f4:76:3d:dd:d3:75:14:c3:63:6b:b5:b5:85:50:1d:22:44:
         5b:7a:b4:b0
-----BEGIN CERTIFICATE-----
MIIEtTCCA52gAwIBAgIBATANBgkqhkiG9w0BAQUFADCBlzELMAkGA1UEBhMCRlIx
FjAUBgNVBAgMDUlsZS1kZS1GcmFuY2UxFzAVBgNVBAcMDkl2cnktc3VyLVNlaW5l
MRMwEQYDVQQKDApJTlRFQ0hJTkZPMRYwFAYDVQQDDA10c2NfcGtpX2NoaWxkMSow
KAYJKoZIhvcNAQkBFht0c2NfcGtpX2NoaWxkQHRzYy5pdGluZXQuZnIwHhcNMTUx
MTEwMTA1MDAwWhcNMTYxMTA5MTA1MDAwWjCBkTELMAkGA1UEBhMCRlIxFjAUBgNV
BAgMDUlsZS1kZS1GcmFuY2UxFzAVBgNVBAcMDkl2cnktc3VyLVNlaW5lMRMwEQYD
VQQKDApJTlRFQ0hJTkZPMRMwEQYDVQQDDAp0c2NfbWFzdGVyMScwJQYJKoZIhvcN
AQkBFhh0c2NfbWFzdGVyQHRzYy5pdGluZXQuZnIwgZ8wDQYJKoZIhvcNAQEBBQAD
gY0AMIGJAoGBAMoAkOexJUDuW58dAO5bqgi0ygSrTo12kZHVUZs+uquIjXlGY0h4
j7P8x7HR84Wg5A2RgqMhkhYARZDMfOvSsMNXHB2OKKTYHss0kLuE4pGC5tDhW+kt
GmPXRClF6U74Sjca9+SrlRZNrobSTqHaXVTcn08M01qL52aP6TtB6MHlAgMBAAGj
ggGSMIIBjjAlBglghkgBhvhCAQ0EGBYWQ2VydGlmaWNhdCBTZXJ2ZXVyIFNTTDAd
BgNVHQ4EFgQU330mEyC1N0KrPyaDR9wcOkFklB0wgcIGA1UdIwSBujCBt4AUmi7R
6nkes3vord17kz1qnMVLetihgZukgZgwgZUxCzAJBgNVBAYTAkZSMRYwFAYDVQQI
DA1JbGUtZGUtRnJhbmNlMRcwFQYDVQQHDA5JdnJ5LXN1ci1TZWluZTETMBEGA1UE
CgwKSU5URUNISU5GTzEVMBMGA1UEAwwMdHNjX3BraV9yb290MSkwJwYJKoZIhvcN
AQkBFhp0c2NfcGtpX3Jvb3RAdHNjLml0aW5ldC5mcoIBATAJBgNVHRIEAjAAMDMG
A1UdEQQsMCqCEXd3dy53ZWJzZXJ2ZXIuY29tghV3d3cud2Vic2VydmVyLWJpcy5j
b20wDAYDVR0TAQH/BAIwADALBgNVHQ8EBAMCBeAwEQYJYIZIAYb4QgEBBAQDAgZA
MBMGA1UdJQQMMAoGCCsGAQUFBwMBMA0GCSqGSIb3DQEBBQUAA4IBAQA00B5jX5/i
EzVc9IfGmT3o0isQfmRd2I773O7so9/CS/pi4PKB9Gt44bnMe/oVLnYZRJ+r6Ipp
XzQFaAlYWmQegIybREVrG4rT+O6WqSxWIypmpneRdoZ5PjCyLJGdXtStmPeHm6Hj
3EebmQDOEkYLmiiVBv9/jb6m5pVGzj+Y1Ps0rCjIZ2gQJyWYEKjlbNs7U617qaFv
RRZxKfWmC8TWk9e+qROvTaPaX6UuU2zUeMenOrE31q+aatNsAbFGZ3wr4Rflgizf
J0zHxXL40qjCuYF8GQ72+uDdey85a5eiDdJieHWHrGUlZ4r39HY93dN1FMNja7W1
hVAdIkRberSw
-----END CERTIFICATE-----
